target datalayout = "e-m:e-p270:32:32-p271:32:32-p272:64:64-i64:64-i128:128-f80:128-n8:16:32:64-S128"
target triple = "x86_64-pc-linux-gnu"

%"class.marisa::grimoire::trie::LoudsTrie" = type { %"class.marisa::grimoire::vector::BitVector", %"class.marisa::grimoire::vector::BitVector", %"class.marisa::grimoire::vector::BitVector", %"class.marisa::grimoire::vector::Vector.4", %"class.marisa::grimoire::vector::FlatVector", %"class.marisa::grimoire::trie::Tail", %"class.marisa::scoped_ptr", %"class.marisa::grimoire::vector::Vector.8", i64, i64, %"class.marisa::grimoire::trie::Config", %"class.marisa::grimoire::io::Mapper" }
%"class.marisa::grimoire::vector::BitVector" = type { %"class.marisa::grimoire::vector::Vector", i64, i64, %"class.marisa::grimoire::vector::Vector.0", %"class.marisa::grimoire::vector::Vector.2", %"class.marisa::grimoire::vector::Vector.2" }
%"class.marisa::grimoire::vector::Vector" = type <{ %"class.marisa::scoped_array", ptr, ptr, i64, i64, i8, [7 x i8] }>
%"class.marisa::scoped_array" = type { ptr }
%"class.marisa::grimoire::vector::Vector.0" = type <{ %"class.marisa::scoped_array", ptr, ptr, i64, i64, i8, [7 x i8] }>
%"class.marisa::grimoire::vector::Vector.2" = type <{ %"class.marisa::scoped_array", ptr, ptr, i64, i64, i8, [7 x i8] }>
%"class.marisa::grimoire::vector::Vector.4" = type <{ %"class.marisa::scoped_array", ptr, ptr, i64, i64, i8, [7 x i8] }>
%"class.marisa::grimoire::vector::FlatVector" = type { %"class.marisa::grimoire::vector::Vector", i64, i32, i64 }
%"class.marisa::grimoire::trie::Tail" = type { %"class.marisa::grimoire::vector::Vector.6", %"class.marisa::grimoire::vector::BitVector" }
%"class.marisa::grimoire::vector::Vector.6" = type <{ %"class.marisa::scoped_array", ptr, ptr, i64, i64, i8, [7 x i8] }>
%"class.marisa::scoped_ptr" = type { ptr }
%"class.marisa::grimoire::vector::Vector.8" = type <{ %"class.marisa::scoped_array", ptr, ptr, i64, i64, i8, [7 x i8] }>
%"class.marisa::grimoire::trie::Config" = type <{ i64, i32, i32, i32, [4 x i8] }>
%"class.marisa::grimoire::io::Mapper" = type <{ ptr, ptr, i64, i64, i32, [4 x i8] }>
%"class.marisa::Agent" = type { %"class.marisa::Query", %"class.marisa::Key", %"class.marisa::scoped_ptr.12" }
%"class.marisa::Query" = type { ptr, i64, i64 }
%"class.marisa::Key" = type { ptr, i32, %"union.marisa::Key::Union" }
%"union.marisa::Key::Union" = type { i32 }
%"class.marisa::scoped_ptr.12" = type { ptr }
%"class.marisa::grimoire::trie::State" = type { %"class.marisa::grimoire::vector::Vector.6", %"class.marisa::grimoire::vector::Vector.13", i32, i32, i32, i32 }
%"class.marisa::grimoire::vector::Vector.13" = type <{ %"class.marisa::scoped_array", ptr, ptr, i64, i64, i8, [7 x i8] }>

; Function Attrs: mustprogress nounwind uwtable
define linkonce_odr void @_ZN6marisa3Key6set_idEm(ptr noundef nonnull align 8 dereferenceable(16) %0, i64 noundef %1) #5 comdat align 2 {
  %3 = alloca ptr, align 8
  %4 = alloca i64, align 8
  store ptr %0, ptr %3, align 8
  store i64 %1, ptr %4, align 8
  %5 = load ptr, ptr %3, align 8
  %6 = load i64, ptr %4, align 8
  %7 = trunc i64 %6 to i32
  %8 = getelementptr inbounds %"class.marisa::Key", ptr %5, i32 0, i32 2
  store i32 %7, ptr %8, align 4
  ret void
}

; Function Attrs: mustprogress nounwind uwtable
define linkonce_odr void @_ZN6marisa3Key7set_strEPKcm(ptr noundef nonnull align 8 dereferenceable(16) %0, ptr noundef %1, i64 noundef %2) #5 comdat align 2 {
  %4 = alloca ptr, align 8
  %5 = alloca ptr, align 8
  %6 = alloca i64, align 8
  store ptr %0, ptr %4, align 8
  store ptr %1, ptr %5, align 8
  store i64 %2, ptr %6, align 8
  %7 = load ptr, ptr %4, align 8
  %8 = load ptr, ptr %5, align 8
  %9 = getelementptr inbounds %"class.marisa::Key", ptr %7, i32 0, i32 0
  store ptr %8, ptr %9, align 8
  %10 = load i64, ptr %6, align 8
  %11 = trunc i64 %10 to i32
  %12 = getelementptr inbounds %"class.marisa::Key", ptr %7, i32 0, i32 1
  store i32 %11, ptr %12, align 8
  ret void
}

; Function Attrs: mustprogress nounwind uwtable
define linkonce_odr noundef nonnull align 8 dereferenceable(8) ptr @_ZNK6marisa8grimoire6vector6VectorImEixEm(ptr noundef nonnull align 8 dereferenceable(41) %0, i64 noundef %1) #5 comdat align 2 {
  %3 = alloca ptr, align 8
  %4 = alloca i64, align 8
  store ptr %0, ptr %3, align 8
  store i64 %1, ptr %4, align 8
  %5 = load ptr, ptr %3, align 8
  %6 = getelementptr inbounds %"class.marisa::grimoire::vector::Vector", ptr %5, i32 0, i32 2
  %7 = load ptr, ptr %6, align 8
  %8 = load i64, ptr %4, align 8
  %9 = getelementptr inbounds i64, ptr %7, i64 %8
  ret ptr %9
}

; Function Attrs: mustprogress nounwind uwtable
define linkonce_odr noundef nonnull align 8 dereferenceable(112) ptr @_ZNK6marisa10scoped_ptrINS_8grimoire4trie5StateEEdeEv(ptr noundef nonnull align 8 dereferenceable(8) %0) #5 comdat align 2 {
  %2 = alloca ptr, align 8
  store ptr %0, ptr %2, align 8
  %3 = load ptr, ptr %2, align 8
  %4 = getelementptr inbounds %"class.marisa::scoped_ptr.12", ptr %3, i32 0, i32 0
  %5 = load ptr, ptr %4, align 8
  ret ptr %5
}

; Function Attrs: mustprogress uwtable
define linkonce_odr void @_ZN6marisa5Agent7set_keyEm(ptr noundef nonnull align 8 dereferenceable(48) %0, i64 noundef %1) #4 comdat align 2 {
  %3 = alloca ptr, align 8
  %4 = alloca i64, align 8
  store ptr %0, ptr %3, align 8
  store i64 %1, ptr %4, align 8
  %5 = load ptr, ptr %3, align 8
  %6 = getelementptr inbounds %"class.marisa::Agent", ptr %5, i32 0, i32 1
  %7 = load i64, ptr %4, align 8
  call void @_ZN6marisa3Key6set_idEm(ptr noundef nonnull align 8 dereferenceable(16) %6, i64 noundef %7)
  ret void
}

; Function Attrs: mustprogress uwtable
define linkonce_odr void @_ZN6marisa5Agent7set_keyEPKcm(ptr noundef nonnull align 8 dereferenceable(48) %0, ptr noundef %1, i64 noundef %2) #4 comdat align 2 {
  %4 = alloca ptr, align 8
  %5 = alloca ptr, align 8
  %6 = alloca i64, align 8
  store ptr %0, ptr %4, align 8
  store ptr %1, ptr %5, align 8
  store i64 %2, ptr %6, align 8
  %7 = load ptr, ptr %4, align 8
  %8 = getelementptr inbounds %"class.marisa::Agent", ptr %7, i32 0, i32 1
  %9 = load ptr, ptr %5, align 8
  %10 = load i64, ptr %6, align 8
  call void @_ZN6marisa3Key7set_strEPKcm(ptr noundef nonnull align 8 dereferenceable(16) %8, ptr noundef %9, i64 noundef %10)
  ret void
}

; Function Attrs: mustprogress nounwind uwtable
define linkonce_odr noundef ptr @_ZNK6marisa5Query3ptrEv(ptr noundef nonnull align 8 dereferenceable(24) %0) #5 comdat align 2 {
  %2 = alloca ptr, align 8
  store ptr %0, ptr %2, align 8
  %3 = load ptr, ptr %2, align 8
  %4 = getelementptr inbounds %"class.marisa::Query", ptr %3, i32 0, i32 0
  %5 = load ptr, ptr %4, align 8
  ret ptr %5
}

; Function Attrs: mustprogress uwtable
define linkonce_odr noundef zeroext i1 @_ZNK6marisa8grimoire6vector9BitVectorixEm(ptr noundef nonnull align 8 dereferenceable(208) %0, i64 noundef %1) #4 comdat align 2 {
  %3 = alloca ptr, align 8
  %4 = alloca i64, align 8
  store ptr %0, ptr %3, align 8
  store i64 %1, ptr %4, align 8
  %5 = load ptr, ptr %3, align 8
  %6 = getelementptr inbounds %"class.marisa::grimoire::vector::BitVector", ptr %5, i32 0, i32 0
  %7 = load i64, ptr %4, align 8
  %8 = udiv i64 %7, 64
  %9 = call noundef nonnull align 8 dereferenceable(8) ptr @_ZNK6marisa8grimoire6vector6VectorImEixEm(ptr noundef nonnull align 8 dereferenceable(41) %6, i64 noundef %8)
  %10 = load i64, ptr %9, align 8
  %11 = load i64, ptr %4, align 8
  %12 = urem i64 %11, 64
  %13 = shl i64 1, %12
  %14 = and i64 %10, %13
  %15 = icmp ne i64 %14, 0
  ret i1 %15
}

; Function Attrs: mustprogress nounwind uwtable
define linkonce_odr noundef i64 @_ZNK6marisa8grimoire4trie5State7node_idEv(ptr noundef nonnull align 8 dereferenceable(112) %0) #5 comdat align 2 {
  %2 = alloca ptr, align 8
  store ptr %0, ptr %2, align 8
  %3 = load ptr, ptr %2, align 8
  %4 = getelementptr inbounds %"class.marisa::grimoire::trie::State", ptr %3, i32 0, i32 2
  %5 = load i32, ptr %4, align 8
  %6 = zext i32 %5 to i64
  ret i64 %6
}

; Function Attrs: mustprogress nounwind uwtable
define linkonce_odr noundef i64 @_ZNK6marisa5Query6lengthEv(ptr noundef nonnull align 8 dereferenceable(24) %0) #5 comdat align 2 {
  %2 = alloca ptr, align 8
  store ptr %0, ptr %2, align 8
  %3 = load ptr, ptr %2, align 8
  %4 = getelementptr inbounds %"class.marisa::Query", ptr %3, i32 0, i32 1
  %5 = load i64, ptr %4, align 8
  ret i64 %5
}

; Function Attrs: mustprogress nounwind uwtable
define linkonce_odr noundef nonnull align 8 dereferenceable(24) ptr @_ZNK6marisa5Agent5queryEv(ptr noundef nonnull align 8 dereferenceable(48) %0) #5 comdat align 2 {
  %2 = alloca ptr, align 8
  store ptr %0, ptr %2, align 8
  %3 = load ptr, ptr %2, align 8
  %4 = getelementptr inbounds %"class.marisa::Agent", ptr %3, i32 0, i32 0
  ret ptr %4
}

; Function Attrs: mustprogress nounwind uwtable
define linkonce_odr noundef i64 @_ZNK6marisa8grimoire4trie5State9query_posEv(ptr noundef nonnull align 8 dereferenceable(112) %0) #5 comdat align 2 {
  %2 = alloca ptr, align 8
  store ptr %0, ptr %2, align 8
  %3 = load ptr, ptr %2, align 8
  %4 = getelementptr inbounds %"class.marisa::grimoire::trie::State", ptr %3, i32 0, i32 3
  %5 = load i32, ptr %4, align 4
  %6 = zext i32 %5 to i64
  ret i64 %6
}

; Function Attrs: mustprogress nounwind uwtable
define linkonce_odr void @_ZN6marisa8grimoire4trie5State11lookup_initEv(ptr noundef nonnull align 8 dereferenceable(112) %0) #5 comdat align 2 {
  %2 = alloca ptr, align 8
  store ptr %0, ptr %2, align 8
  %3 = load ptr, ptr %2, align 8
  %4 = getelementptr inbounds %"class.marisa::grimoire::trie::State", ptr %3, i32 0, i32 2
  store i32 0, ptr %4, align 8
  %5 = getelementptr inbounds %"class.marisa::grimoire::trie::State", ptr %3, i32 0, i32 3
  store i32 0, ptr %5, align 4
  %6 = getelementptr inbounds %"class.marisa::grimoire::trie::State", ptr %3, i32 0, i32 5
  store i32 0, ptr %6, align 4
  ret void
}

; Function Attrs: mustprogress uwtable
define linkonce_odr noundef nonnull align 8 dereferenceable(112) ptr @_ZN6marisa5Agent5stateEv(ptr noundef nonnull align 8 dereferenceable(48) %0) #4 comdat align 2 {
  %2 = alloca ptr, align 8
  store ptr %0, ptr %2, align 8
  %3 = load ptr, ptr %2, align 8
  %4 = getelementptr inbounds %"class.marisa::Agent", ptr %3, i32 0, i32 2
  %5 = call noundef nonnull align 8 dereferenceable(112) ptr @_ZNK6marisa10scoped_ptrINS_8grimoire4trie5StateEEdeEv(ptr noundef nonnull align 8 dereferenceable(8) %4)
  ret ptr %5
}

; Function Attrs: mustprogress uwtable
define noundef zeroext i1 @_ZNK6marisa8grimoire4trie9LoudsTrie6lookupERNS_5AgentE(ptr noundef nonnull align 8 dereferenceable(1136) %0, ptr noundef nonnull align 8 dereferenceable(48) %1) #4 align 2 {
  %3 = alloca i1, align 1
  %4 = alloca ptr, align 8
  %5 = alloca ptr, align 8
  %6 = alloca ptr, align 8
  store ptr %0, ptr %4, align 8
  store ptr %1, ptr %5, align 8
  %7 = load ptr, ptr %4, align 8
  %8 = load ptr, ptr %5, align 8
  %9 = call noundef nonnull align 8 dereferenceable(112) ptr @_ZN6marisa5Agent5stateEv(ptr noundef nonnull align 8 dereferenceable(48) %8)
  store ptr %9, ptr %6, align 8
  %10 = load ptr, ptr %6, align 8
  call void @_ZN6marisa8grimoire4trie5State11lookup_initEv(ptr noundef nonnull align 8 dereferenceable(112) %10)
  br label %11

11:                                               ; preds = %22, %2
  %12 = load ptr, ptr %6, align 8
  %13 = call noundef i64 @_ZNK6marisa8grimoire4trie5State9query_posEv(ptr noundef nonnull align 8 dereferenceable(112) %12)
  %14 = load ptr, ptr %5, align 8
  %15 = call noundef nonnull align 8 dereferenceable(24) ptr @_ZNK6marisa5Agent5queryEv(ptr noundef nonnull align 8 dereferenceable(48) %14)
  %16 = call noundef i64 @_ZNK6marisa5Query6lengthEv(ptr noundef nonnull align 8 dereferenceable(24) %15)
  %17 = icmp ult i64 %13, %16
  br i1 %17, label %18, label %23

18:                                               ; preds = %11
  %19 = load ptr, ptr %5, align 8
  %20 = call noundef zeroext i1 @_ZNK6marisa8grimoire4trie9LoudsTrie10find_childERNS_5AgentE(ptr noundef nonnull align 8 dereferenceable(1136) %7, ptr noundef nonnull align 8 dereferenceable(48) %19)
  br i1 %20, label %22, label %21

21:                                               ; preds = %18
  store i1 false, ptr %3, align 1
  br label %42

22:                                               ; preds = %18
  br label %11, !llvm.loop !13

23:                                               ; preds = %11
  %24 = getelementptr inbounds %"class.marisa::grimoire::trie::LoudsTrie", ptr %7, i32 0, i32 1
  %25 = load ptr, ptr %6, align 8
  %26 = call noundef i64 @_ZNK6marisa8grimoire4trie5State7node_idEv(ptr noundef nonnull align 8 dereferenceable(112) %25)
  %27 = call noundef zeroext i1 @_ZNK6marisa8grimoire6vector9BitVectorixEm(ptr noundef nonnull align 8 dereferenceable(208) %24, i64 noundef %26)
  br i1 %27, label %29, label %28

28:                                               ; preds = %23
  store i1 false, ptr %3, align 1
  br label %42

29:                                               ; preds = %23
  %30 = load ptr, ptr %5, align 8
  %31 = load ptr, ptr %5, align 8
  %32 = call noundef nonnull align 8 dereferenceable(24) ptr @_ZNK6marisa5Agent5queryEv(ptr noundef nonnull align 8 dereferenceable(48) %31)
  %33 = call noundef ptr @_ZNK6marisa5Query3ptrEv(ptr noundef nonnull align 8 dereferenceable(24) %32)
  %34 = load ptr, ptr %5, align 8
  %35 = call noundef nonnull align 8 dereferenceable(24) ptr @_ZNK6marisa5Agent5queryEv(ptr noundef nonnull align 8 dereferenceable(48) %34)
  %36 = call noundef i64 @_ZNK6marisa5Query6lengthEv(ptr noundef nonnull align 8 dereferenceable(24) %35)
  call void @_ZN6marisa5Agent7set_keyEPKcm(ptr noundef nonnull align 8 dereferenceable(48) %30, ptr noundef %33, i64 noundef %36)
  %37 = load ptr, ptr %5, align 8
  %38 = getelementptr inbounds %"class.marisa::grimoire::trie::LoudsTrie", ptr %7, i32 0, i32 1
  %39 = load ptr, ptr %6, align 8
  %40 = call noundef i64 @_ZNK6marisa8grimoire4trie5State7node_idEv(ptr noundef nonnull align 8 dereferenceable(112) %39)
  %41 = call noundef i64 @_ZNK6marisa8grimoire6vector9BitVector5rank1Em(ptr noundef nonnull align 8 dereferenceable(208) %38, i64 noundef %40)
  call void @_ZN6marisa5Agent7set_keyEm(ptr noundef nonnull align 8 dereferenceable(48) %37, i64 noundef %41)
  store i1 true, ptr %3, align 1
  br label %42

42:                                               ; preds = %29, %28, %21
  %43 = load i1, ptr %3, align 1
  ret i1 %43
}