; Function Attrs: mustprogress uwtable
define noundef zeroext i1 @_ZNK6marisa8grimoire4trie9LoudsTrie6lookupERNS_5AgentE(ptr noundef nonnull align 8 dereferenceable(1136) %0, ptr noundef nonnull align 8 dereferenceable(48) %1) local_unnamed_addr #3 align 2 {
  %3 = getelementptr inbounds i8, ptr %1, i64 40
  %4 = load ptr, ptr %3, align 8
  %5 = getelementptr inbounds i8, ptr %4, i64 96
  store i32 0, ptr %5, align 8
  %6 = getelementptr inbounds i8, ptr %4, i64 100
  store i32 0, ptr %6, align 4
  %7 = getelementptr inbounds i8, ptr %4, i64 108
  store i32 0, ptr %7, align 4
  %8 = getelementptr inbounds i8, ptr %1, i64 8
  br label %9

9:                                                ; preds = %14, %2
  %10 = load i32, ptr %6, align 4
  %11 = zext i32 %10 to i64
  %12 = load i64, ptr %8, align 8
  %13 = icmp ugt i64 %12, %11
  br i1 %13, label %14, label %16

14:                                               ; preds = %9
  %15 = tail call noundef zeroext i1 @_ZNK6marisa8grimoire4trie9LoudsTrie10find_childERNS_5AgentE(ptr noundef nonnull align 8 dereferenceable(1136) %0, ptr noundef nonnull align 8 dereferenceable(48) %1)
  br i1 %15, label %9, label %.loopexit, !llvm.loop !16

16:                                               ; preds = %9
  %17 = load i32, ptr %5, align 8
  %18 = zext i32 %17 to i64
  %19 = lshr i64 %18, 6
  %20 = getelementptr inbounds i8, ptr %0, i64 224
  %21 = load ptr, ptr %20, align 8
  %22 = getelementptr inbounds i64, ptr %21, i64 %19
  %23 = load i64, ptr %22, align 8
  %24 = and i64 %18, 63
  %25 = shl nuw i64 1, %24
  %26 = and i64 %25, %23
  %.not = icmp eq i64 %26, 0
  br i1 %.not, label %.loopexit, label %27

27:                                               ; preds = %16
  %28 = getelementptr inbounds i8, ptr %0, i64 208
  %29 = load ptr, ptr %1, align 8
  %30 = getelementptr inbounds i8, ptr %1, i64 24
  store ptr %29, ptr %30, align 8
  %31 = trunc i64 %12 to i32
  %32 = getelementptr inbounds i8, ptr %1, i64 32
  store i32 %31, ptr %32, align 8
  %33 = load i32, ptr %5, align 8
  %34 = zext i32 %33 to i64
  %35 = tail call noundef i64 @_ZNK6marisa8grimoire6vector9BitVector5rank1Em(ptr noundef nonnull align 8 dereferenceable(208) %28, i64 noundef %34)
  %36 = trunc i64 %35 to i32
  %37 = getelementptr inbounds i8, ptr %1, i64 36
  store i32 %36, ptr %37, align 4
  br label %.loopexit

.loopexit:                                        ; preds = %14, %16, %27
  %.0 = phi i1 [ true, %27 ], [ false, %16 ], [ false, %14 ]
  ret i1 %.0
}